(ihp
RlHp
p0
(dp1
S'q_type'
p2
S'linear'
p3
sS'filter_actions'
p4
I00
sS'lambda_'
p5
NsS'radius'
p6
I6
sS'model'
p7
(dp8
(S'candy'
p9
I1
(I-1
I-3
tp10
tp11
F0.1539748152984305
s(S'my-tail'
p12
(I-1
I4
tp13
tp14
F0.013563472074724674
s(g9
I1
(I3
I-2
tp15
tp16
F0.18827047232992156
s(g12
(I-3
I2
tp17
tp18
F0.001482228563630587
s(g12
(I1
I0
tp19
tp20
F0.047142445170637794
s(S'wall-yt'
p21
I2
tp22
F-0.06924892311819537
s(S'adv-tail'
p23
(I2
I0
tp24
tp25
F-1.0849344294960863
s(g9
I3
(I3
I1
tp26
tp27
F-0.03677404697125422
s(g12
(I-1
I0
tp28
tp29
F0.17007782289889292
s(g9
I1
(I1
I1
tp30
tp31
F0.18806414091477558
s(g23
(I-1
I-1
tp32
tp33
F-0.18139478390693853
s(S'adv-head'
p34
(I0
I2
tp35
tp36
F-0.044792169381608335
s(g34
(I-2
I-3
tp37
tp38
F-0.016551827858576736
s(g9
I1
(I-2
I3
tp39
tp40
F-0.18233107353776473
s(g9
I3
(I2
I-3
tp41
tp42
F0.0953506164808521
s(g9
I1
(I0
I-3
tp43
tp44
F0.3497219218621319
s(g23
(I0
I0
tp45
tp46
F-0.17397796237205476
s(g12
(I0
I-3
tp47
tp48
F0.0
s(g9
I3
(I1
I-4
tp49
tp50
F0.023077291796880697
s(g23
(I-1
I0
tp51
tp52
F-0.8220017548001178
s(g9
I1
(I2
I2
tp53
tp54
F0.09903375684968635
s(g23
(I1
I3
tp55
tp56
F-0.027118488373827007
s(g9
I3
(I0
I2
tp57
tp58
F-0.009133062466224367
s(g34
(I1
I-4
tp59
tp60
F-0.027403081007867702
s(g9
I1
(I-2
I-2
tp61
tp62
F0.18728158340605486
s(g9
I3
(I2
I0
tp63
tp64
F-0.008908607827337864
s(g9
I1
(I-3
I2
tp65
tp66
F-0.9971204856014111
s(g12
(I-5
I0
tp67
tp68
F0.004364671503575434
s(g9
I1
(I-3
I0
tp69
tp70
F0.25175190784182705
s(g23
(I-4
I-1
tp71
tp72
F-0.17924639592083239
s(g9
I3
(I-1
I4
tp73
tp74
F0.009078687200190071
s(g9
I1
(I-4
I0
tp75
tp76
F0.19431524539523223
s(g9
I1
(I0
I-2
tp77
tp78
F0.471113744631282
s(g12
(I0
I-4
tp79
tp80
F0.0
s(g12
(I0
I1
tp81
tp82
F1.4513388384482253
s(g23
(I-4
I0
tp83
tp84
F0.02780365058609211
s(g9
I1
(I1
I0
tp85
tp86
F0.685063415565991
s(g9
I1
(I-2
I1
tp87
tp88
F0.27283565502405444
s(g34
(I-1
I-2
tp89
tp90
F-0.07452561165113522
s(g9
I3
(I-1
I1
tp91
tp92
F-0.009491666332271692
s(S'wall-xl'
p93
I3
tp94
F0.00813463600514519
s(g34
(I1
I4
tp95
tp96
F0.061502134439967986
s(g9
I3
(I5
I0
tp97
tp98
F0.0
s(g34
(I-3
I1
tp99
tp100
F-0.15179921703143048
s(g23
(I0
I4
tp101
tp102
F0.0813886586655968
s(g12
(I0
I5
tp103
tp104
F-0.0012899961759099958
s(g9
I3
(I0
I4
tp105
tp106
F0.010287806041930452
s(g34
(I0
I-3
tp107
tp108
F-0.014654837886782728
s(g21
I1
tp109
F-0.16447389966785914
s(g34
(I-3
I2
tp110
tp111
F0.016491529836013253
s(g12
(I-2
I0
tp112
tp113
F0.0645037994546772
s(g21
I-1
tp114
F-0.4017470446998831
s(g9
I1
(I0
I-1
tp115
tp116
F0.7080273908818581
s(g12
(I0
I0
tp117
tp118
F-0.10077567455283659
s(g23
(I-1
I-2
tp119
tp120
F-0.26554096526607623
s(g23
(I2
I1
tp121
tp122
F0.012254206566854291
s(g9
I3
(I-1
I2
tp123
tp124
F-0.009133062466224367
s(g23
(I4
I-1
tp125
tp126
F0.06023978868592286
s(g9
I3
(I-1
I-2
tp127
tp128
F0.10577773011379403
s(g9
I3
(I2
I2
tp129
tp130
F-0.008908607827337864
s(g23
(I-2
I3
tp131
tp132
F-0.02800829265104304
s(g9
I1
(I0
I2
tp133
tp134
F0.1725287127470041
s(g34
(I2
I-1
tp135
tp136
F-0.05837407690848624
s(g23
(I0
I-1
tp137
tp138
F-0.48184045959039273
s(g9
I1
(I-3
I1
tp139
tp140
F-0.1534855078179646
s(g12
(I-3
I-2
tp141
tp142
F0.0024330112372948102
s(g9
I1
(I4
I0
tp143
tp144
F0.23945091054252762
s(g34
(I2
I-3
tp145
tp146
F0.019925099553293604
s(g23
(I1
I1
tp147
tp148
F-0.13169965660783725
s(g34
(I5
I0
tp149
tp150
F-0.00010769082583006971
s(g9
I1
(I1
I-2
tp151
tp152
F0.4799365399595338
s(g23
(I2
I-1
tp153
tp154
F-0.1231959318508094
s(g34
(I2
I-2
tp155
tp156
F0.048819704327374244
s(g9
I1
(I2
I3
tp157
tp158
F0.2495080004722854
s(g12
(I3
I0
tp159
tp160
F0.02042291269083516
s(g23
(I5
I0
tp161
tp162
F-0.026842964664882497
s(g9
I3
(I1
I4
tp163
tp164
F0.0
s(g9
I3
(I-2
I0
tp165
tp166
F0.09628606378152234
s(g34
(I3
I1
tp167
tp168
F0.04151151514547912
s(g12
(I0
I-1
tp169
tp170
F0.06870787431057593
s(g9
I3
(I-2
I-2
tp171
tp172
F0.10577773011379403
s(g12
(I-1
I1
tp173
tp174
F0.3816413567390988
s(g34
(I0
I0
tp175
tp176
F-1.7966797598055155
s(g23
(I-1
I3
tp177
tp178
F0.014617358572133404
s(g9
I3
(I-3
I-2
tp179
tp180
F0.022121927861751267
s(g23
(I-2
I2
tp181
tp182
F-0.0007859958393201432
s(g9
I1
(I-1
I2
tp183
tp184
F-0.19867957981602005
s(S'wall-yb'
p185
I3
tp186
F0.06653802647964818
s(g9
I1
(I1
I3
tp187
tp188
F-0.01627394247464198
s(g9
I1
(I-1
I-4
tp189
tp190
F-0.022347821689781486
s(g34
(I-1
I2
tp191
tp192
F0.028162353220497812
s(g93
I0
tp193
F0.017717174844439715
s(g9
I3
(I2
I-2
tp194
tp195
F0.09490498216402214
s(g34
(I-3
I-2
tp196
tp197
F-0.0001116031483921311
s(g34
(I-4
I-1
tp198
tp199
F-0.02773643537371036
s(g23
(I3
I1
tp200
tp201
F-0.03836574909886355
s(g9
I1
(I0
I-5
tp202
tp203
F0.0593851943414976
s(g21
I0
tp204
F-0.054194278891235896
s(g23
(I0
I-5
tp205
tp206
F0.046333367444375696
s(g9
I1
(I2
I1
tp207
tp208
F0.20672668322347615
s(g9
I1
(I0
I3
tp209
tp210
F0.11403649366634801
s(g9
I3
(I-2
I3
tp211
tp212
F0.010287806041930452
s(g9
I1
(I3
I-1
tp213
tp214
F0.21630283820188073
s(g34
(I-1
I-3
tp215
tp216
F0.04766333553681841
s(g34
(I1
I-1
tp217
tp218
F-0.13086383254240486
s(g12
(I-2
I-3
tp219
tp220
F0.0
s(g12
(I-1
I-4
tp221
tp222
F0.0
s(g9
I1
(I2
I-2
tp223
tp224
F0.35534218737358886
s(g12
(I2
I1
tp225
tp226
F-0.07081826061750371
s(g12
(I1
I-1
tp227
tp228
F0.06668564378981988
s(g12
(I2
I-1
tp229
tp230
F0.001925839086104056
s(g9
I1
(I1
I-3
tp231
tp232
F0.26878663597915675
s(g12
(I-2
I1
tp233
tp234
F0.07390672704468987
s(g9
I1
(I2
I0
tp235
tp236
F0.11168209118912008
s(g9
I1
(I4
I1
tp237
tp238
F0.16113652385840974
s(g34
(I0
I-5
tp239
tp240
F-0.05941724860300078
s(g34
(I-1
I0
tp241
tp242
F-0.9059718937708016
s(g23
(I1
I-4
tp243
tp244
F0.0027079406214335
s(g9
I3
(I3
I2
tp245
tp246
F-0.03971758309965128
s(g23
(I1
I-2
tp247
tp248
F-0.057628227384286766
s(g9
I1
(I1
I-1
tp249
tp250
F0.5375672048065389
s(g9
I1
(I3
I1
tp251
tp252
F0.21118214541383165
s(g185
I2
tp253
F0.0642795978160448
s(g9
I3
(I-4
I0
tp254
tp255
F-0.020622910024352195
s(g9
I1
(I-1
I3
tp256
tp257
F0.18552736248313711
s(g9
I1
(I5
I0
tp258
tp259
F0.07698220492734496
s(g9
I1
(I1
I2
tp260
tp261
F0.046400122343884145
s(g12
(I3
I2
tp262
tp263
F0.0010856702233725591
s(S'wall-xr'
p264
I1
tp265
F-0.16443307976490054
s(g9
I1
(I0
I4
tp266
tp267
F0.14275379964015938
s(g9
I3
(I1
I0
tp268
tp269
F-0.00044563431682995315
s(g12
(I3
I-2
tp270
tp271
F0.0
s(g9
I3
(I1
I2
tp272
tp273
F-0.009133062466224367
s(g9
I3
(I1
I-1
tp274
tp275
F0.09490498216402214
s(g23
(I1
I-3
tp276
tp277
F-0.10457328573131622
s(g9
I1
(I0
I0
tp278
tp279
F1.1717426971191536
s(g23
(I-3
I1
tp280
tp281
F0.043078078479453184
s(g9
I1
(I-5
I0
tp282
tp283
F0.17170898508081417
s(g9
I3
(I0
I-2
tp284
tp285
F0.0
s(g9
I1
(I-1
I0
tp286
tp287
F0.6157261063665146
s(g23
(I0
I-3
tp288
tp289
F-0.1369749287409158
s(g9
I1
(I-2
I-3
tp290
tp291
F0.19493178301303063
s(g9
I3
(I-2
I-1
tp292
tp293
F0.11840799164327362
s(g9
I1
(I-1
I-1
tp294
tp295
F0.5886580562509721
s(g12
(I1
I3
tp296
tp297
F0.08801235929740278
s(g23
(I1
I2
tp298
tp299
F-0.22892794459026497
s(g23
(I-3
I0
tp300
tp301
F-0.07493537646479091
s(g23
(I-2
I-2
tp302
tp303
F-0.055402444005559486
s(g23
(I-3
I2
tp304
tp305
F-0.005580097384021969
s(g23
(I-2
I0
tp306
tp307
F-0.5833882132429175
s(g34
(I0
I5
tp308
tp309
F0.05673652146086381
s(g9
I3
(I-3
I2
tp310
tp311
F0.0
s(g23
(I1
I-1
tp312
tp313
F-0.1336484508842159
s(g34
(I-1
I4
tp314
tp315
F-0.04103941504528456
s(g23
(I4
I0
tp316
tp317
F0.02762238346913473
s(g12
(I4
I1
tp318
tp319
F0.0021395319306933037
s(g9
I3
(I-1
I0
tp320
tp321
F0.09628606378152234
s(g12
(I2
I3
tp322
tp323
F-7.401493664480367e-05
s(g9
I3
(I-1
I-1
tp324
tp325
F0.09628606378152234
s(g23
(I0
I-2
tp326
tp327
F-0.6498242774928896
s(g9
I3
(I-3
I0
tp328
tp329
F0.0
s(g12
(I4
I0
tp330
tp331
F0.0
s(g12
(I1
I4
tp332
tp333
F0.013471828897868998
s(g34
(I3
I-2
tp334
tp335
F-0.04689448489582
s(g9
I1
(I-4
I-1
tp336
tp337
F0.21330807515329583
s(g21
I5
tp338
F-0.1607582388329661
s(g23
(I0
I-4
tp339
tp340
F-0.032152470656234416
s(g185
I5
tp341
F-0.048045626097334
s(g9
I1
(I-1
I4
tp342
tp343
F0.08349304685594577
s(g23
(I3
I0
tp344
tp345
F-0.10874721491295375
s(g23
(I-1
I2
tp346
tp347
F-0.02865602692473426
s(g12
(I3
I-1
tp348
tp349
F0.0
s(g23
(I-2
I-3
tp350
tp351
F-0.05104786394417811
s(g9
I1
(I-2
I0
tp352
tp353
F0.3045222662252376
s(g93
I2
tp354
F0.017866629517108972
s(g12
(I-2
I-1
tp355
tp356
F0.0012124964632076929
s(g34
(I2
I1
tp357
tp358
F0.037513318160502594
s(g23
(I0
I5
tp359
tp360
F-0.020716045939516946
s(g34
(I1
I0
tp361
tp362
F-1.3485435051378791
s(g34
(I-2
I-1
tp363
tp364
F-0.05821322379300287
s(g12
(I2
I2
tp365
tp366
F0.03805506313943935
s(g9
I3
(I0
I-3
tp367
tp368
F0.023077291796880697
s(g9
I1
(I3
I0
tp369
tp370
F0.31859671605443207
s(g9
I3
(I-2
I2
tp371
tp372
F0.0
s(g34
(I-4
I0
tp373
tp374
F-0.04351303144187969
s(g264
I2
tp375
F-0.053622940015797066
s(g9
I1
(I0
I5
tp376
tp377
F0.057541609538302514
s(g34
(I-1
I-4
tp378
tp379
F0.10870528319662598
s(g9
I1
(I-1
I-2
tp380
tp381
F0.263762103834573
s(g34
(I-2
I1
tp382
tp383
F-0.016301293145629205
s(g34
(I0
I4
tp384
tp385
F0.08646312980483234
sS'non-auth'
p386
F-11.258634485308763
s(g12
(I-1
I3
tp387
tp388
F-0.05206534131266894
s(g34
(I0
I-2
tp389
tp390
F-0.03959143191376453
s(g9
I3
(I2
I1
tp391
tp392
F-0.008908607827337864
s(g12
(I-3
I0
tp393
tp394
F0.006156525912520133
s(g23
(I0
I3
tp395
tp396
F0.0011451722379209343
s(g9
I3
(I-3
I-1
tp397
tp398
F0.022121927861751267
s(g34
(I0
I3
tp399
tp400
F0.01937757023891972
s(g23
(I-5
I0
tp401
tp402
F-0.05408052435597304
s(g9
I3
(I3
I-1
tp403
tp404
F-0.00044563431682995315
s(g23
(I-1
I4
tp405
tp406
F-0.05379455296236746
s(g34
(I-1
I3
tp407
tp408
F0.07696064901459158
s(g23
(I2
I-3
tp409
tp410
F-0.014150448734851728
s(g23
(I1
I0
tp411
tp412
F-0.46143340319474163
s(g34
(I-3
I-1
tp413
tp414
F-0.107011007425563
s(g34
(I-5
I0
tp415
tp416
F0.0394663961500858
s(g9
I1
(I1
I4
tp417
tp418
F0.13877638554391045
s(g9
I3
(I-1
I-4
tp419
tp420
F0.023077291796880697
s(g93
I4
tp421
F-0.02918309900470271
s(g12
(I-4
I1
tp422
tp423
F-0.007599589600200149
s(g9
I1
(I2
I-3
tp424
tp425
F0.13046518706621213
s(g264
I4
tp426
F0.021765065703946106
s(g34
(I4
I1
tp427
tp428
F0.05141242247466546
s(g9
I1
(I-2
I2
tp429
tp430
F0.12709065786485702
s(g23
(I-1
I-3
tp431
tp432
F-0.10588975132351766
s(g9
I3
(I1
I1
tp433
tp434
F0.0
s(g12
(I-1
I-1
tp435
tp436
F-0.05770656255992099
s(g34
(I3
I-1
tp437
tp438
F-0.06628328264810167
s(g21
I4
tp439
F-0.08656247898677162
s(g93
I1
tp440
F-0.020408131233011495
s(g34
(I1
I-3
tp441
tp442
F0.02168155905647084
s(g12
(I2
I-2
tp443
tp444
F0.0
s(g9
I3
(I2
I-1
tp445
tp446
F-0.00044563431682995315
s(g34
(I1
I1
tp447
tp448
F0.005806753175033276
s(g34
(I-3
I0
tp449
tp450
F0.06027994868972204
s(g12
(I0
I4
tp451
tp452
F0.03237549348767048
s(g23
(I-4
I1
tp453
tp454
F-0.03384549567867056
s(g34
(I2
I0
tp455
tp456
F-0.0735770112601362
s(g12
(I-2
I-2
tp457
tp458
F0.0
s(g34
(I3
I2
tp459
tp460
F0.0038678919506504057
s(g12
(I3
I1
tp461
tp462
F-0.06203693624352832
s(g185
I4
tp463
F-0.013459214094241025
s(g34
(I4
I-1
tp464
tp465
F0.062495635995325136
s(g12
(I-4
I0
tp466
tp467
F0.004364671503575434
s(g9
I1
(I-3
I-1
tp468
tp469
F-2.2245754399733992
s(g34
(I-2
I2
tp470
tp471
F0.09889337082108036
s(g9
I1
(I2
I-1
tp472
tp473
F0.2254814440882346
s(g264
I3
tp474
F-0.08124475423216565
s(g34
(I2
I2
tp475
tp476
F0.08868354339469418
s(g12
(I4
I-1
tp477
tp478
F0.0
s(g34
(I-1
I1
tp479
tp480
F-0.0381625273698075
s(g9
I3
(I0
I3
tp481
tp482
F0.001154743575706085
s(g9
I3
(I-3
I1
tp483
tp484
F0.0
s(g23
(I2
I-2
tp485
tp486
F-0.01549397667375529
s(g9
I3
(I-5
I0
tp487
tp488
F-0.020622910024352195
s(g34
(I1
I-2
tp489
tp490
F-0.0815160333407418
s(g34
(I0
I-4
tp491
tp492
F-0.07432766188901758
s(g9
I3
(I2
I3
tp493
tp494
F0.0
s(g9
I3
(I1
I-3
tp495
tp496
F0.1184279082777328
s(g12
(I-1
I-3
tp497
tp498
F0.0
s(g9
I1
(I-4
I1
tp499
tp500
F0.08479602033614497
s(g9
I3
(I0
I0
tp501
tp502
F0.10577773011379403
s(g9
I3
(I0
I-4
tp503
tp504
F0.023077291796880697
s(g12
(I-3
I-1
tp505
tp506
F0.0024330112372948102
s(g23
(I2
I2
tp507
tp508
F-0.09508696108942216
s(g34
(I-2
I-2
tp509
tp510
F0.044861394366488755
s(g12
(I1
I-3
tp511
tp512
F0.0
s(g12
(I1
I1
tp513
tp514
F0.5894946611273179
s(g9
I3
(I4
I1
tp515
tp516
F-0.027865439143916357
s(g12
(I5
I0
tp517
tp518
F0.0
s(g34
(I4
I0
tp519
tp520
F-0.05136018126359921
s(g9
I1
(I-3
I-2
tp521
tp522
F0.0976757923524239
s(g12
(I-3
I1
tp523
tp524
F0.08581426835200492
s(g264
I0
tp525
F-0.14218742096569806
s(g9
I3
(I-4
I1
tp526
tp527
F-0.015725068695140825
s(g34
(I2
I3
tp528
tp529
F0.03234070059293235
s(g34
(I1
I2
tp530
tp531
F0.016720587490487302
s(g23
(I-3
I-2
tp532
tp533
F0.014046992160263398
s(g9
I3
(I1
I3
tp534
tp535
F-0.009133062466224367
s(g93
I5
tp536
F-0.45244420192559626
s(g9
I1
(I-1
I1
tp537
tp538
F0.24937294865568677
s(g264
I5
tp539
F-0.008025183727061862
s(g9
I3
(I-2
I1
tp540
tp541
F-0.009491666332271692
s(g9
I1
(I3
I2
tp542
tp543
F0.18150386968987964
s(g9
I3
(I-4
I-1
tp544
tp545
F-0.02828834363963025
s(g23
(I3
I2
tp546
tp547
F-0.03359172619489127
s(g21
I3
tp548
F-0.06807866668126235
s(g34
(I-1
I-1
tp549
tp550
F-0.08674439019169812
s(g9
I1
(I4
I-1
tp551
tp552
F0.09440593033849957
s(g9
I1
(I-2
I-1
tp553
tp554
F0.3739999458011121
s(g12
(I-2
I3
tp555
tp556
F-0.0014703913153442253
s(g12
(I0
I-2
tp557
tp558
F0.095998037002343
s(g34
(I0
I-1
tp559
tp560
F-0.8026301160691062
s(g34
(I3
I0
tp561
tp562
F0.034019053718257454
s(g23
(I1
I4
tp563
tp564
F-0.14234316050487603
s(g9
I1
(I0
I-4
tp565
tp566
F0.23193891331280156
s(g9
I1
(I1
I-4
tp567
tp568
F0.14565959337525367
s(g23
(I-2
I1
tp569
tp570
F-0.13787926101927872
s(g34
(I-2
I0
tp571
tp572
F-0.008049072513809206
s(g12
(I2
I0
tp573
tp574
F-0.1105593321499544
s(g9
I3
(I1
I-2
tp575
tp576
F0.09490498216402214
s(g9
I3
(I0
I-1
tp577
tp578
F0.0
s(g23
(I-1
I-4
tp579
tp580
F0.037050272513811086
s(g23
(I3
I-2
tp581
tp582
F-0.03376971338501972
s(g12
(I-1
I2
tp583
tp584
F0.06785400716377246
s(g23
(I3
I-1
tp585
tp586
F-0.028962269806137426
s(g9
I3
(I0
I5
tp587
tp588
F0.0
s(g23
(I0
I2
tp589
tp590
F0.010930736726113043
s(g9
I3
(I3
I0
tp591
tp592
F-0.035358016568464504
s(g9
I3
(I4
I0
tp593
tp594
F-0.02644940874112664
s(g12
(I1
I2
tp595
tp596
F0.007886017317615315
s(g9
I3
(I-1
I-3
tp597
tp598
F0.023077291796880697
s(g12
(I0
I2
tp599
tp600
F0.37619344225014406
s(g23
(I-1
I1
tp601
tp602
F-0.3443063851371155
s(g12
(I0
I3
tp603
tp604
F0.09168293393163814
s(g12
(I-2
I2
tp605
tp606
F-0.035818931708583225
s(g12
(I-1
I-2
tp607
tp608
F0.0
s(g34
(I1
I3
tp609
tp610
F-0.0701306565176411
s(g23
(I4
I1
tp611
tp612
F-0.08140122319694938
s(g23
(I-2
I-1
tp613
tp614
F-0.07849551923948356
s(g23
(I-3
I-1
tp615
tp616
F-0.1467137396944493
s(g9
I3
(I3
I-2
tp617
tp618
F0.09490498216402214
s(g23
(I2
I3
tp619
tp620
F-0.05571746466207162
s(g12
(I1
I-4
tp621
tp622
F0.0
s(g185
I1
tp623
F0.009932130179024818
s(g34
(I-4
I1
tp624
tp625
F-0.0309433598735923
s(g34
(I-2
I3
tp626
tp627
F0.002303839177147061
s(g12
(I1
I-2
tp628
tp629
F-0.018232069614820642
s(g9
I3
(I-1
I3
tp630
tp631
F0.001154743575706085
ssS'rl_type'
p632
S'qlearning'
p633
sb.