(dp0
(S'candy'
p1
I1
(I2
I1
tp2
tp3
F0.32990603490393117
s(S'my-tail'
p4
(I-1
I4
tp5
tp6
F0.03991730638498672
s(g1
I1
(I-3
I0
tp7
tp8
F0.19911909396862523
s(S'adv-tail'
p9
(I1
I2
tp10
tp11
F0.1128659494807687
s(g4
(I1
I0
tp12
tp13
F-0.07276574124324242
s(g9
(I-1
I-4
tp14
tp15
F0.03899768483034803
s(g1
I3
(I3
I1
tp16
tp17
F1.1889413203842063
s(g1
I3
(I0
I-5
tp18
tp19
F1.1973136493435472
s(g4
(I-1
I0
tp20
tp21
F-0.10746564869946411
s(g1
I1
(I1
I1
tp22
tp23
F0.468407436803723
s(g9
(I2
I2
tp24
tp25
F-0.15146614256773602
s(S'adv-head'
p26
(I0
I2
tp27
tp28
F-0.15948033617139568
s(g26
(I-1
I-3
tp29
tp30
F0.029147798624450934
s(g1
I1
(I-2
I3
tp31
tp32
F0.1511017227996647
s(g1
I3
(I-1
I1
tp33
tp34
F1.5806725654070106
s(g4
(I2
I1
tp35
tp36
F-0.002002207392287395
s(g1
I1
(I0
I-3
tp37
tp38
F0.24965381701413544
s(g4
(I-4
I0
tp39
tp40
F0.018945216058240875
s(g4
(I0
I-3
tp41
tp42
F-0.0016771188342338123
s(S'x'
p43
I3
tp44
F0.8628364909971068
s(g1
I3
(I1
I-4
tp45
tp46
F1.3395268677397372
s(g9
(I-2
I0
tp47
tp48
F-0.8425737199376023
s(g1
I1
(I-2
I-1
tp49
tp50
F0.31568806209451583
s(g9
(I1
I3
tp51
tp52
F-0.060622417015531706
s(g1
I3
(I0
I2
tp53
tp54
F1.5551376620279496
s(g26
(I1
I-4
tp55
tp56
F-0.029561138667309264
s(g1
I1
(I-1
I-1
tp57
tp58
F0.4434259797310165
s(g1
I3
(I-1
I-4
tp59
tp60
F1.0798404307497886
s(g1
I1
(I-3
I2
tp61
tp62
F0.12919667757123884
s(g4
(I-5
I0
tp63
tp64
F0.021068502704055043
s(g1
I1
(I3
I-1
tp65
tp66
F0.15909844791761388
s(g9
(I-4
I-1
tp67
tp68
F-0.023098097973278726
s(g1
I3
(I-1
I4
tp69
tp70
F1.2248827968009928
s(g1
I1
(I-4
I0
tp71
tp72
F0.16522516820333763
s(g26
(I3
I-1
tp73
tp74
F-0.12645980355383635
s(g4
(I0
I-4
tp75
tp76
F-0.00016189281579861298
s(g4
(I0
I1
tp77
tp78
F-0.09038737142476108
s(g4
(I0
I0
tp79
tp80
F-0.09759587115620923
s(g43
I4
tp81
F0.9255768789823412
s(g4
(I-4
I1
tp82
tp83
F0.10675549060839443
s(g1
I1
(I1
I0
tp84
tp85
F0.582274599228609
s(S'y'
p86
I5
tp87
F0.9635138584324916
s(g1
I1
(I2
I-3
tp88
tp89
F0.14126464191946672
s(g26
(I2
I2
tp90
tp91
F-0.14052530840475586
s(g1
I3
(I-2
I1
tp92
tp93
F1.2977740844115484
s(g9
(I4
I0
tp94
tp95
F-0.08011491196875814
s(g26
(I1
I4
tp96
tp97
F-0.005520384907871166
s(g1
I3
(I5
I0
tp98
tp99
F1.4153799487636216
s(g26
(I-3
I1
tp100
tp101
F-0.05074295227261663
s(g9
(I0
I4
tp102
tp103
F-0.05837840218486784
s(g4
(I0
I5
tp104
tp105
F0.011355054121315421
s(g1
I3
(I0
I4
tp106
tp107
F0.9470376404086533
s(g26
(I0
I-3
tp108
tp109
F-0.23220670959176223
s(g26
(I-3
I2
tp110
tp111
F-0.13571187014279976
s(g4
(I-2
I0
tp112
tp113
F-0.005103202631287253
s(g1
I1
(I0
I-2
tp114
tp115
F0.3754540619133207
s(g9
(I-4
I0
tp116
tp117
F-0.11221006363906258
s(g9
(I-2
I-2
tp118
tp119
F-0.08698753937950567
s(g1
I3
(I0
I1
tp120
tp121
F2.0708500001259615
s(g9
(I-1
I-3
tp122
tp123
F-0.017774231703328057
s(g1
I3
(I-1
I2
tp124
tp125
F1.278968209791596
s(g9
(I4
I-1
tp126
tp127
F-0.014955778616578758
s(g1
I3
(I-1
I-2
tp128
tp129
F1.2380115790536512
s(g1
I3
(I-1
I-1
tp130
tp131
F1.5177086843028893
s(g43
I2
tp132
F0.726009738118382
s(g9
(I-2
I3
tp133
tp134
F0.0016181155693837993
s(g1
I1
(I0
I2
tp135
tp136
F0.38742334011366747
s(g26
(I2
I-1
tp137
tp138
F-0.20377212604353545
s(g9
(I0
I-1
tp139
tp140
F-1.6142493731529757
s(g1
I1
(I-3
I1
tp141
tp142
F0.1806842780608329
s(g4
(I-3
I-1
tp143
tp144
F0.04090948293177046
s(g1
I1
(I4
I0
tp145
tp146
F0.11928499328336119
s(g26
(I-2
I1
tp147
tp148
F-0.261285618261306
s(g9
(I1
I1
tp149
tp150
F-0.45776349089677737
s(g26
(I5
I0
tp151
tp152
F0.009509253707297726
s(g1
I1
(I1
I-1
tp153
tp154
F0.4813825177030603
s(g9
(I2
I-1
tp155
tp156
F-0.03608231414975795
s(g26
(I-1
I2
tp157
tp158
F-0.27333204968899805
s(g1
I1
(I2
I3
tp159
tp160
F0.1449183427304131
s(g4
(I3
I0
tp161
tp162
F0.0016890295376782865
s(g9
(I5
I0
tp163
tp164
F-0.06112597861922938
s(g1
I3
(I1
I4
tp165
tp166
F1.05541728727138
s(g1
I3
(I-2
I0
tp167
tp168
F1.6428861959863412
s(g26
(I3
I1
tp169
tp170
F-0.15911420892612643
s(g4
(I0
I-2
tp171
tp172
F-0.030977518471068027
s(g1
I3
(I2
I2
tp173
tp174
F1.088079066036178
s(g4
(I2
I-3
tp175
tp176
F0.07213844490101154
s(g26
(I0
I0
tp177
tp178
F-6.371295846536046
s(g9
(I-1
I3
tp179
tp180
F-0.013844504486717077
s(g1
I3
(I-3
I-1
tp181
tp182
F1.0502064496534018
s(g9
(I-1
I2
tp183
tp184
F0.05262438674004334
s(g1
I1
(I-2
I2
tp185
tp186
F0.21837304566388102
s(g1
I1
(I1
I3
tp187
tp188
F0.18000639572003885
s(g1
I1
(I-1
I-4
tp189
tp190
F0.13272853406951587
s(g26
(I2
I-2
tp191
tp192
F-0.07732852372778935
s(g1
I3
(I4
I-1
tp193
tp194
F1.457747781245267
s(g4
(I-1
I1
tp195
tp196
F-0.00785539233084932
s(g1
I3
(I2
I-2
tp197
tp198
F1.158601100361782
s(g26
(I3
I0
tp199
tp200
F-0.141322442995144
s(g26
(I-4
I-1
tp201
tp202
F-0.03213506376037446
s(g9
(I3
I1
tp203
tp204
F-0.24559859065721623
s(g1
I1
(I0
I-5
tp205
tp206
F0.07022495928344612
s(g9
(I0
I-5
tp207
tp208
F0.019116225651113868
s(g1
I1
(I-1
I-3
tp209
tp210
F0.2248743493449503
s(g1
I1
(I0
I3
tp211
tp212
F0.28032362583792986
s(g1
I3
(I-1
I3
tp213
tp214
F1.0776739336397139
s(g1
I1
(I3
I-2
tp215
tp216
F0.13765025553965765
s(g26
(I2
I1
tp217
tp218
F-0.10369442546113929
s(g26
(I1
I-2
tp219
tp220
F-0.35468158820923046
s(g4
(I-2
I-3
tp221
tp222
F0.057236556614234206
s(g4
(I2
I0
tp223
tp224
F-0.00023135730366117928
s(g1
I1
(I-1
I2
tp225
tp226
F0.29931146868875247
s(g4
(I-1
I-3
tp227
tp228
F0.04481868443848282
s(g4
(I1
I-2
tp229
tp230
F0.0025695254001299444
s(g43
I1
tp231
F0.6081357822696964
s(g4
(I2
I-2
tp232
tp233
F0.0371433782628165
s(g9
(I0
I5
tp234
tp235
F-0.09726522444905746
s(g86
I0
tp236
F0.4813319014420209
s(g1
I1
(I1
I-3
tp237
tp238
F0.22129240435525543
s(g4
(I-2
I1
tp239
tp240
F0.0786767012977045
s(g1
I1
(I2
I0
tp241
tp242
F0.3871151497938866
s(g4
(I1
I-1
tp243
tp244
F-0.015004930673878215
s(g9
(I-2
I-3
tp245
tp246
F-0.024966744518921863
s(g1
I1
(I4
I1
tp247
tp248
F0.09058286758381111
s(g26
(I0
I-5
tp249
tp250
F-0.007242692953704797
s(g26
(I0
I4
tp251
tp252
F-0.011863266372430176
s(g26
(I-2
I0
tp253
tp254
F-0.29344275694453664
s(g4
(I3
I2
tp255
tp256
F-0.01670263104634459
s(g1
I3
(I3
I2
tp257
tp258
F1.1004942446330048
s(g9
(I1
I-2
tp259
tp260
F0.07920038126079959
s(g1
I1
(I1
I-2
tp261
tp262
F0.29745153022318366
s(g1
I1
(I3
I1
tp263
tp264
F0.1675224593918951
s(g1
I3
(I-4
I0
tp265
tp266
F1.0629934000724572
s(g86
I7
tp267
F0.9533135405247718
s(g1
I1
(I-1
I3
tp268
tp269
F0.2267297228959284
s(g1
I1
(I5
I0
tp270
tp271
F0.036215124513721705
s(g1
I1
(I1
I2
tp272
tp273
F0.34337690633265305
s(g9
(I1
I-4
tp274
tp275
F-0.03211515618927583
s(g1
I1
(I0
I4
tp276
tp277
F0.1475738925474762
s(g1
I3
(I1
I0
tp278
tp279
F2.0856773180775505
s(g4
(I3
I-2
tp280
tp281
F0.06837030599363707
s(g1
I3
(I1
I2
tp282
tp283
F1.276845405267367
s(g1
I3
(I1
I-1
tp284
tp285
F1.569988282882474
s(g9
(I1
I-3
tp286
tp287
F0.018249308933590454
s(g1
I1
(I0
I0
tp288
tp289
F0.9128353568812454
s(g9
(I-3
I1
tp290
tp291
F-0.03729107640574402
s(g1
I1
(I-5
I0
tp292
tp293
F0.05949231438221015
s(g1
I3
(I0
I-2
tp294
tp295
F1.570152820982693
s(g1
I1
(I-1
I0
tp296
tp297
F0.6199482041599741
s(g9
(I0
I-3
tp298
tp299
F0.049442966651425425
s(g4
(I0
I2
tp300
tp301
F0.08149185272065869
s(g1
I3
(I0
I3
tp302
tp303
F1.138344665094421
s(g1
I3
(I-2
I-3
tp304
tp305
F1.1839980019103802
s(g1
I3
(I-2
I-2
tp306
tp307
F1.1768856749844014
s(g1
I1
(I2
I2
tp308
tp309
F0.2523142162670939
s(g4
(I1
I3
tp310
tp311
F0.024438533688841097
s(g4
(I-3
I2
tp312
tp313
F0.08289160155174685
s(g9
(I3
I-1
tp314
tp315
F-0.11943290008839204
s(g9
(I-1
I-1
tp316
tp317
F-0.20871695048236977
s(g9
(I-1
I0
tp318
tp319
F-2.234488960929397
s(g26
(I0
I5
tp320
tp321
F-0.007885221284812973
s(g1
I3
(I-3
I2
tp322
tp323
F1.2940158087221993
s(g9
(I1
I-1
tp324
tp325
F-0.14963717341804322
s(g43
I0
tp326
F0.4811596546417071
s(g26
(I-1
I4
tp327
tp328
F-0.07320082210855246
s(g86
I1
tp329
F0.6500024931102754
s(g4
(I4
I1
tp330
tp331
F0.06754870095972478
s(g86
I6
tp332
F0.943526860586017
s(g1
I3
(I-1
I0
tp333
tp334
F2.177888846547387
s(g4
(I2
I3
tp335
tp336
F0.004000851515346568
s(g1
I3
(I-2
I-1
tp337
tp338
F1.2679204253264775
s(g9
(I0
I-2
tp339
tp340
F-0.3579220260155395
s(g1
I3
(I3
I-1
tp341
tp342
F1.271408221758926
s(g4
(I4
I0
tp343
tp344
F0.06084061108529225
s(g4
(I1
I4
tp345
tp346
F0.06792378871044977
s(g1
I1
(I-4
I-1
tp347
tp348
F0.15277656305411755
s(g9
(I0
I-4
tp349
tp350
F0.014192917899317729
s(g1
I1
(I-1
I4
tp351
tp352
F0.09465945508026782
s(g9
(I-2
I2
tp353
tp354
F-0.08300288899918577
s(g1
I1
(I0
I-1
tp355
tp356
F0.6312139248855739
s(g4
(I-3
I0
tp357
tp358
F0.08629548524195854
s(g43
I7
tp359
F0.9648763675476724
s(g1
I1
(I-2
I0
tp360
tp361
F0.37342765281621904
s(g4
(I-1
I-2
tp362
tp363
F0.03755181696447208
s(g26
(I-2
I-3
tp364
tp365
F-0.10773655353873621
s(g43
I9
tp366
F1.0254389368272128
s(g26
(I1
I0
tp367
tp368
F-3.4887282551676324
s(g26
(I-1
I-1
tp369
tp370
F-0.15348050459735563
s(g86
I8
tp371
F1.0234002125648405
s(g4
(I-2
I-1
tp372
tp373
F-0.034645130088744404
s(g1
I3
(I0
I-3
tp374
tp375
F1.3064436477292547
s(g1
I1
(I-3
I-2
tp376
tp377
F0.11567507522604632
s(g1
I3
(I2
I-1
tp378
tp379
F1.339339512821201
s(g26
(I-4
I0
tp380
tp381
F-0.019924132031501802
s(g1
I1
(I-3
I-1
tp382
tp383
F0.1848521302676843
s(g1
I1
(I0
I5
tp384
tp385
F0.08107190668125837
s(g26
(I-1
I-4
tp386
tp387
F-0.0902503822611561
s(g9
(I0
I3
tp388
tp389
F-0.06129136093046154
s(g1
I1
(I-1
I-2
tp390
tp391
F0.2772251575251725
s(g26
(I2
I-3
tp392
tp393
F-0.12791552650742857
s(g1
I1
(I0
I1
tp394
tp395
F0.621907771670731
s(g26
(I0
I1
tp396
tp397
F-3.4647017455165643
s(g4
(I-1
I3
tp398
tp399
F0.08181128072210431
s(g26
(I0
I-1
tp400
tp401
F-2.9360555461103233
s(g1
I3
(I2
I1
tp402
tp403
F1.112140293262134
s(g4
(I3
I-1
tp404
tp405
F0.028889567533384106
s(g1
I3
(I-2
I2
tp406
tp407
F1.2236165880650147
s(g1
I3
(I3
I0
tp408
tp409
F1.4074924561537114
s(g26
(I0
I3
tp410
tp411
F-0.16079433983044167
s(g9
(I-5
I0
tp412
tp413
F-0.09953031971494465
s(g1
I3
(I-3
I0
tp414
tp415
F1.2878597650846693
s(g9
(I-1
I4
tp416
tp417
F-0.07119966278159157
s(g26
(I-1
I3
tp418
tp419
F0.05680573915074434
s(g9
(I-1
I1
tp420
tp421
F-0.48733175091523007
s(g9
(I1
I0
tp422
tp423
F-2.4557789707552646
s(g26
(I-3
I-2
tp424
tp425
F-0.1236734633011221
s(g26
(I-5
I0
tp426
tp427
F0.03464490453419716
s(g86
I2
tp428
F0.7298963681020378
s(g1
I1
(I1
I4
tp429
tp430
F0.12167510929156697
s(g1
I3
(I2
I0
tp431
tp432
F1.507488332745212
s(g9
(I0
I1
tp433
tp434
F-1.5751333592062826
s(g1
I1
(I-2
I1
tp435
tp436
F0.3333832154993335
s(g4
(I0
I3
tp437
tp438
F0.13361192010642606
s(g26
(I4
I1
tp439
tp440
F-0.032420607255077206
s(g1
I1
(I2
I-2
tp441
tp442
F0.27781915682916064
s(g9
(I2
I1
tp443
tp444
F-0.015832400789426607
s(g1
I3
(I1
I1
tp445
tp446
F1.4409849058506727
s(g4
(I-1
I-1
tp447
tp448
F-0.04639549923670793
s(g26
(I1
I-3
tp449
tp450
F-0.07424278260100214
s(g4
(I-2
I2
tp451
tp452
F0.09839339468695835
s(g26
(I1
I1
tp453
tp454
F-0.3336834581430121
s(g26
(I-3
I0
tp455
tp456
F-0.1597467814435902
s(g4
(I0
I4
tp457
tp458
F0.05091063063496246
s(g4
(I1
I2
tp459
tp460
F0.06693396352335267
s(g9
(I-4
I1
tp461
tp462
F-0.04563820843853569
s(g26
(I2
I0
tp463
tp464
F-0.25301839663386066
s(g4
(I2
I2
tp465
tp466
F0.011372023144619057
s(g26
(I3
I2
tp467
tp468
F0.0507103171006685
s(g4
(I3
I1
tp469
tp470
F0.07412261397980797
s(g43
I8
tp471
F1.0040842864358348
s(g86
I9
tp472
F1.0255965121316177
s(g26
(I4
I-1
tp473
tp474
F-0.07275541718960973
s(g4
(I0
I-5
tp475
tp476
F0.06970240691279724
s(g9
(I0
I0
tp477
tp478
F-4.823953635342557
s(g26
(I-2
I2
tp479
tp480
F0.046428198248343426
s(g1
I1
(I2
I-1
tp481
tp482
F0.3032341237448516
s(g4
(I-4
I-1
tp483
tp484
F0.028638270004885887
s(g26
(I-2
I-1
tp485
tp486
F-0.39479174281824453
s(g4
(I4
I-1
tp487
tp488
F0.11624945193512205
s(g26
(I-1
I1
tp489
tp490
F-0.1704892998496022
s(g1
I1
(I-1
I1
tp491
tp492
F0.4521619321335247
s(g1
I3
(I-3
I1
tp493
tp494
F1.1592714305269851
s(g9
(I2
I-2
tp495
tp496
F-0.15866616666434566
s(g1
I3
(I-5
I0
tp497
tp498
F0.9541213755231698
s(g26
(I1
I-1
tp499
tp500
F-0.20143905181483543
s(g26
(I0
I-4
tp501
tp502
F-0.023425196834485643
s(g1
I3
(I2
I3
tp503
tp504
F1.161362104958163
s(g1
I3
(I1
I-3
tp505
tp506
F1.14911767865889
s(g26
(I3
I-2
tp507
tp508
F-0.13156852599956267
s(g1
I1
(I-4
I1
tp509
tp510
F0.11816830037272702
s(g1
I3
(I0
I0
tp511
tp512
F2.737607852899316
s(g1
I3
(I0
I-4
tp513
tp514
F1.0441840913208886
s(g4
(I-3
I-2
tp515
tp516
F0.01874053698425891
s(g9
(I-2
I-1
tp517
tp518
F0.04514971175681704
s(g26
(I-1
I-2
tp519
tp520
F-0.4417784968024166
s(g4
(I1
I-3
tp521
tp522
F0.017013906911824934
s(g4
(I1
I1
tp523
tp524
F0.04439457568205225
s(g1
I3
(I4
I1
tp525
tp526
F1.35773825499263
s(g4
(I5
I0
tp527
tp528
F0.07590937963554535
s(g26
(I4
I0
tp529
tp530
F-0.09637203845751227
s(g1
I1
(I3
I0
tp531
tp532
F0.21832764387737097
s(g4
(I-3
I1
tp533
tp534
F-0.041210642567054666
s(g43
I6
tp535
F1.0070429772292808
s(g1
I3
(I-4
I1
tp536
tp537
F1.2831136311064786
s(g26
(I2
I3
tp538
tp539
F0.0006604577542575851
s(g26
(I1
I2
tp540
tp541
F-0.16038247598369082
s(g86
I3
tp542
F0.8918504859495916
s(g9
(I-3
I-1
tp543
tp544
F-0.1556026656662319
s(g1
I3
(I2
I-3
tp545
tp546
F1.4993029023644622
s(g1
I1
(I3
I2
tp547
tp548
F0.10824433602063857
s(g1
I3
(I-4
I-1
tp549
tp550
F1.0923738708900648
s(g4
(I1
I-4
tp551
tp552
F0.05351821088690158
s(g26
(I-2
I-2
tp553
tp554
F-0.0652185156167892
s(g1
I1
(I4
I-1
tp555
tp556
F0.07928388894260326
s(g1
I1
(I-2
I-2
tp557
tp558
F0.22940655291159834
s(g4
(I-2
I3
tp559
tp560
F0.10390428347956165
s(g4
(I0
I-1
tp561
tp562
F-0.13308498457534776
s(g26
(I0
I-2
tp563
tp564
F-0.1297889614031323
s(g26
(I-3
I-1
tp565
tp566
F-0.07643519210421082
s(g9
(I1
I4
tp567
tp568
F-0.06411914032732627
s(g1
I1
(I0
I-4
tp569
tp570
F0.1565830782405004
s(g1
I1
(I1
I-4
tp571
tp572
F0.07676325038745116
s(g9
(I-2
I1
tp573
tp574
F0.01450396535842679
s(g26
(I-1
I0
tp575
tp576
F-2.7132895338070204
s(g4
(I-1
I-4
tp577
tp578
F0.09540051456705685
s(g1
I3
(I1
I-2
tp579
tp580
F1.3410145903249002
s(g1
I3
(I0
I-1
tp581
tp582
F2.148775936551139
s(g9
(I2
I0
tp583
tp584
F-0.9420087736166001
s(g9
(I-3
I0
tp585
tp586
F-0.11130482917758995
s(g4
(I-1
I2
tp587
tp588
F0.08842501073163962
s(g9
(I3
I-2
tp589
tp590
F-0.1500717168046119
s(g1
I3
(I0
I5
tp591
tp592
F1.3137365692948406
s(g9
(I0
I2
tp593
tp594
F-0.6259167105429196
s(g1
I3
(I-3
I-2
tp595
tp596
F1.1943795642062214
s(g1
I3
(I4
I0
tp597
tp598
F1.1740118418507732
s(g9
(I-3
I2
tp599
tp600
F-0.10629481264854992
s(g1
I3
(I-1
I-3
tp601
tp602
F1.0382648947148656
s(g1
I1
(I-2
I-3
tp603
tp604
F0.15034706096579808
s(g9
(I2
I-3
tp605
tp606
F0.0302388273143702
s(g1
I3
(I1
I3
tp607
tp608
F1.0296738389452034
s(g4
(I2
I-1
tp609
tp610
F-0.015803124834787192
s(g4
(I-2
I-2
tp611
tp612
F-0.014255008943688814
s(g26
(I1
I3
tp613
tp614
F-0.11339012875445213
s(g9
(I4
I1
tp615
tp616
F-0.09220813836851366
s(g9
(I-1
I-2
tp617
tp618
F-0.026846906848298817
s(g9
(I3
I0
tp619
tp620
F-0.10133908569779
s(g1
I3
(I3
I-2
tp621
tp622
F1.398355726843596
s(g9
(I2
I3
tp623
tp624
F0.006112615384559008
s(g9
(I3
I2
tp625
tp626
F-0.005617782140987973
s(g43
I5
tp627
F0.9585568827270906
s(g26
(I-4
I1
tp628
tp629
F-0.02554321969434101
s(g86
I4
tp630
F0.9012857629326819
sS'trapped'
p631
F-6.054773606257276
s(g26
(I-2
I3
tp632
tp633
F-0.07565857143154786
s(g9
(I-3
I-2
tp634
tp635
F-0.012613665604641148
s(g1
I3
(I-2
I3
tp636
tp637
F1.4580188732996797
s.